; Function Attrs: mustprogress nofree norecurse nosync nounwind willreturn memory(argmem: write) uwtable
define void @_ZN8proxygen22HQStreamDispatcherBaseC2ERNS0_12CallbackBaseENS_18TransportDirectionE(ptr noundef nonnull align 8 dereferenceable(73) %this, ptr noundef nonnull align 8 dereferenceable(8) %callback, i8 noundef zeroext %direction) unnamed_addr #3 align 2 {
entry:
  store ptr getelementptr inbounds ({ [7 x ptr] }, ptr @_ZTVN8proxygen22HQStreamDispatcherBaseE, i64 0, i32 0, i64 2), ptr %this, align 8
  %pendingStreams_ = getelementptr inbounds i8, ptr %this, i64 8
  %_M_single_bucket.i.i = getelementptr inbounds i8, ptr %this, i64 56
  store ptr %_M_single_bucket.i.i, ptr %pendingStreams_, align 8
  %_M_bucket_count.i.i = getelementptr inbounds i8, ptr %this, i64 16
  store i64 1, ptr %_M_bucket_count.i.i, align 8
  %_M_before_begin.i.i = getelementptr inbounds i8, ptr %this, i64 24
  %_M_rehash_policy.i.i = getelementptr inbounds i8, ptr %this, i64 40
  tail call void @llvm.memset.p0.i64(ptr noundef nonnull align 8 dereferenceable(16) %_M_before_begin.i.i, i8 0, i64 16, i1 false)
  store float 1.000000e+00, ptr %_M_rehash_policy.i.i, align 8
  %_M_next_resize.i.i.i = getelementptr inbounds i8, ptr %this, i64 48
  tail call void @llvm.memset.p0.i64(ptr noundef nonnull align 8 dereferenceable(16) %_M_next_resize.i.i.i, i8 0, i64 16, i1 false)
  %callback_ = getelementptr inbounds i8, ptr %this, i64 64
  store ptr %callback, ptr %callback_, align 8
  %direction_ = getelementptr inbounds i8, ptr %this, i64 72
  store i8 %direction, ptr %direction_, align 8
  ret void
}